target datalayout = "e-m:e-p270:32:32-p271:32:32-p272:64:64-i64:64-i128:128-f80:128-n8:16:32:64-S128"
target triple = "x86_64-unknown-linux-gnu"

%"class.icu_75::SimpleTimeZone" = type { %"class.icu_75::BasicTimeZone", i8, i8, i8, i32, i32, i32, i8, i8, i8, i32, i32, i32, i8, i32, i32, i32, i8, ptr, ptr, ptr, ptr }
%"class.icu_75::BasicTimeZone" = type { %"class.icu_75::TimeZone" }
%"class.icu_75::TimeZone" = type { %"class.icu_75::UObject", %"class.icu_75::UnicodeString" }
%"class.icu_75::UObject" = type { ptr }
%"class.icu_75::UnicodeString" = type { %"class.icu_75::Replaceable", %"union.icu_75::UnicodeString::StackBufferOrFields" }
%"class.icu_75::Replaceable" = type { %"class.icu_75::UObject" }
%"union.icu_75::UnicodeString::StackBufferOrFields" = type { %struct.anon.0, [32 x i8] }
%struct.anon.0 = type { i16, i32, i32, ptr }

@_ZN6icu_7514SimpleTimeZone17STATICMONTHLENGTHE = constant [12 x i8] c"\1F\1D\1F\1E\1F\1E\1F\1F\1E\1F\1E\1F", align 1

; Function Attrs: mustprogress nounwind uwtable
define internal noundef signext i8 @_ZL9U_FAILURE10UErrorCode(i32 noundef %code) #0 {
entry:
  %code.addr = alloca i32, align 4
  store i32 %code, ptr %code.addr, align 4
  %0 = load i32, ptr %code.addr, align 4
  %cmp = icmp sgt i32 %0, 0
  %conv = zext i1 %cmp to i8
  ret i8 %conv
}

; Function Attrs: mustprogress uwtable
define void @_ZN6icu_7514SimpleTimeZone13decodeEndRuleER10UErrorCode(ptr noundef nonnull align 8 dereferenceable(160) %this, ptr noundef nonnull align 4 dereferenceable(4) %status) #1 align 2 {
entry:
  %this.addr = alloca ptr, align 8
  %status.addr = alloca ptr, align 8
  store ptr %this, ptr %this.addr, align 8
  store ptr %status, ptr %status.addr, align 8
  %this1 = load ptr, ptr %this.addr, align 8
  %0 = load ptr, ptr %status.addr, align 8
  %1 = load i32, ptr %0, align 4
  %call = call noundef signext i8 @_ZL9U_FAILURE10UErrorCode(i32 noundef %1)
  %tobool = icmp ne i8 %call, 0
  br i1 %tobool, label %if.then, label %if.end

if.then:                                          ; preds = %entry
  br label %if.end91

if.end:                                           ; preds = %entry
  %startDay = getelementptr inbounds %"class.icu_75::SimpleTimeZone", ptr %this1, i32 0, i32 2
  %2 = load i8, ptr %startDay, align 1
  %conv = sext i8 %2 to i32
  %cmp = icmp ne i32 %conv, 0
  br i1 %cmp, label %land.rhs, label %land.end

land.rhs:                                         ; preds = %if.end
  %endDay = getelementptr inbounds %"class.icu_75::SimpleTimeZone", ptr %this1, i32 0, i32 8
  %3 = load i8, ptr %endDay, align 1
  %conv2 = sext i8 %3 to i32
  %cmp3 = icmp ne i32 %conv2, 0
  br label %land.end

land.end:                                         ; preds = %land.rhs, %if.end
  %4 = phi i1 [ false, %if.end ], [ %cmp3, %land.rhs ]
  %cond = select i1 %4, i1 true, i1 false
  %conv4 = zext i1 %cond to i8
  %useDaylight = getelementptr inbounds %"class.icu_75::SimpleTimeZone", ptr %this1, i32 0, i32 13
  store i8 %conv4, ptr %useDaylight, align 8
  %useDaylight5 = getelementptr inbounds %"class.icu_75::SimpleTimeZone", ptr %this1, i32 0, i32 13
  %5 = load i8, ptr %useDaylight5, align 8
  %tobool6 = icmp ne i8 %5, 0
  br i1 %tobool6, label %land.lhs.true, label %if.end10

land.lhs.true:                                    ; preds = %land.end
  %dstSavings = getelementptr inbounds %"class.icu_75::SimpleTimeZone", ptr %this1, i32 0, i32 16
  %6 = load i32, ptr %dstSavings, align 4
  %cmp7 = icmp eq i32 %6, 0
  br i1 %cmp7, label %if.then8, label %if.end10

if.then8:                                         ; preds = %land.lhs.true
  %dstSavings9 = getelementptr inbounds %"class.icu_75::SimpleTimeZone", ptr %this1, i32 0, i32 16
  store i32 3600000, ptr %dstSavings9, align 4
  br label %if.end10

if.end10:                                         ; preds = %if.then8, %land.lhs.true, %land.end
  %endDay11 = getelementptr inbounds %"class.icu_75::SimpleTimeZone", ptr %this1, i32 0, i32 8
  %7 = load i8, ptr %endDay11, align 1
  %conv12 = sext i8 %7 to i32
  %cmp13 = icmp ne i32 %conv12, 0
  br i1 %cmp13, label %if.then14, label %if.end91

if.then14:                                        ; preds = %if.end10
  %endMonth = getelementptr inbounds %"class.icu_75::SimpleTimeZone", ptr %this1, i32 0, i32 7
  %8 = load i8, ptr %endMonth, align 8
  %conv15 = sext i8 %8 to i32
  %cmp16 = icmp slt i32 %conv15, 0
  br i1 %cmp16, label %if.then20, label %lor.lhs.false

lor.lhs.false:                                    ; preds = %if.then14
  %endMonth17 = getelementptr inbounds %"class.icu_75::SimpleTimeZone", ptr %this1, i32 0, i32 7
  %9 = load i8, ptr %endMonth17, align 8
  %conv18 = sext i8 %9 to i32
  %cmp19 = icmp sgt i32 %conv18, 11
  br i1 %cmp19, label %if.then20, label %if.end21

if.then20:                                        ; preds = %lor.lhs.false, %if.then14
  %10 = load ptr, ptr %status.addr, align 8
  store i32 1, ptr %10, align 4
  br label %if.end91

if.end21:                                         ; preds = %lor.lhs.false
  %endTime = getelementptr inbounds %"class.icu_75::SimpleTimeZone", ptr %this1, i32 0, i32 10
  %11 = load i32, ptr %endTime, align 4
  %cmp22 = icmp slt i32 %11, 0
  br i1 %cmp22, label %if.then31, label %lor.lhs.false23

lor.lhs.false23:                                  ; preds = %if.end21
  %endTime24 = getelementptr inbounds %"class.icu_75::SimpleTimeZone", ptr %this1, i32 0, i32 10
  %12 = load i32, ptr %endTime24, align 4
  %cmp25 = icmp sgt i32 %12, 86400000
  br i1 %cmp25, label %if.then31, label %lor.lhs.false26

lor.lhs.false26:                                  ; preds = %lor.lhs.false23
  %endTimeMode = getelementptr inbounds %"class.icu_75::SimpleTimeZone", ptr %this1, i32 0, i32 6
  %13 = load i32, ptr %endTimeMode, align 4
  %cmp27 = icmp slt i32 %13, 0
  br i1 %cmp27, label %if.then31, label %lor.lhs.false28

lor.lhs.false28:                                  ; preds = %lor.lhs.false26
  %endTimeMode29 = getelementptr inbounds %"class.icu_75::SimpleTimeZone", ptr %this1, i32 0, i32 6
  %14 = load i32, ptr %endTimeMode29, align 4
  %cmp30 = icmp sgt i32 %14, 2
  br i1 %cmp30, label %if.then31, label %if.end32

if.then31:                                        ; preds = %lor.lhs.false28, %lor.lhs.false26, %lor.lhs.false23, %if.end21
  %15 = load ptr, ptr %status.addr, align 8
  store i32 1, ptr %15, align 4
  br label %if.end91

if.end32:                                         ; preds = %lor.lhs.false28
  %endDayOfWeek = getelementptr inbounds %"class.icu_75::SimpleTimeZone", ptr %this1, i32 0, i32 9
  %16 = load i8, ptr %endDayOfWeek, align 2
  %conv33 = sext i8 %16 to i32
  %cmp34 = icmp eq i32 %conv33, 0
  br i1 %cmp34, label %if.then35, label %if.else

if.then35:                                        ; preds = %if.end32
  %endMode = getelementptr inbounds %"class.icu_75::SimpleTimeZone", ptr %this1, i32 0, i32 15
  store i32 1, ptr %endMode, align 8
  br label %if.end65

if.else:                                          ; preds = %if.end32
  %endDayOfWeek36 = getelementptr inbounds %"class.icu_75::SimpleTimeZone", ptr %this1, i32 0, i32 9
  %17 = load i8, ptr %endDayOfWeek36, align 2
  %conv37 = sext i8 %17 to i32
  %cmp38 = icmp sgt i32 %conv37, 0
  br i1 %cmp38, label %if.then39, label %if.else41

if.then39:                                        ; preds = %if.else
  %endMode40 = getelementptr inbounds %"class.icu_75::SimpleTimeZone", ptr %this1, i32 0, i32 15
  store i32 2, ptr %endMode40, align 8
  br label %if.end59

if.else41:                                        ; preds = %if.else
  %endDayOfWeek42 = getelementptr inbounds %"class.icu_75::SimpleTimeZone", ptr %this1, i32 0, i32 9
  %18 = load i8, ptr %endDayOfWeek42, align 2
  %conv43 = sext i8 %18 to i32
  %sub = sub nsw i32 0, %conv43
  %conv44 = trunc i32 %sub to i8
  %endDayOfWeek45 = getelementptr inbounds %"class.icu_75::SimpleTimeZone", ptr %this1, i32 0, i32 9
  store i8 %conv44, ptr %endDayOfWeek45, align 2
  %endDay46 = getelementptr inbounds %"class.icu_75::SimpleTimeZone", ptr %this1, i32 0, i32 8
  %19 = load i8, ptr %endDay46, align 1
  %conv47 = sext i8 %19 to i32
  %cmp48 = icmp sgt i32 %conv47, 0
  br i1 %cmp48, label %if.then49, label %if.else51

if.then49:                                        ; preds = %if.else41
  %endMode50 = getelementptr inbounds %"class.icu_75::SimpleTimeZone", ptr %this1, i32 0, i32 15
  store i32 3, ptr %endMode50, align 8
  br label %if.end58

if.else51:                                        ; preds = %if.else41
  %endDay52 = getelementptr inbounds %"class.icu_75::SimpleTimeZone", ptr %this1, i32 0, i32 8
  %20 = load i8, ptr %endDay52, align 1
  %conv53 = sext i8 %20 to i32
  %sub54 = sub nsw i32 0, %conv53
  %conv55 = trunc i32 %sub54 to i8
  %endDay56 = getelementptr inbounds %"class.icu_75::SimpleTimeZone", ptr %this1, i32 0, i32 8
  store i8 %conv55, ptr %endDay56, align 1
  %endMode57 = getelementptr inbounds %"class.icu_75::SimpleTimeZone", ptr %this1, i32 0, i32 15
  store i32 4, ptr %endMode57, align 8
  br label %if.end58

if.end58:                                         ; preds = %if.else51, %if.then49
  br label %if.end59

if.end59:                                         ; preds = %if.end58, %if.then39
  %endDayOfWeek60 = getelementptr inbounds %"class.icu_75::SimpleTimeZone", ptr %this1, i32 0, i32 9
  %21 = load i8, ptr %endDayOfWeek60, align 2
  %conv61 = sext i8 %21 to i32
  %cmp62 = icmp sgt i32 %conv61, 7
  br i1 %cmp62, label %if.then63, label %if.end64

if.then63:                                        ; preds = %if.end59
  %22 = load ptr, ptr %status.addr, align 8
  store i32 1, ptr %22, align 4
  br label %if.end91

if.end64:                                         ; preds = %if.end59
  br label %if.end65

if.end65:                                         ; preds = %if.end64, %if.then35
  %endMode66 = getelementptr inbounds %"class.icu_75::SimpleTimeZone", ptr %this1, i32 0, i32 15
  %23 = load i32, ptr %endMode66, align 8
  %cmp67 = icmp eq i32 %23, 2
  br i1 %cmp67, label %if.then68, label %if.else78

if.then68:                                        ; preds = %if.end65
  %endDay69 = getelementptr inbounds %"class.icu_75::SimpleTimeZone", ptr %this1, i32 0, i32 8
  %24 = load i8, ptr %endDay69, align 1
  %conv70 = sext i8 %24 to i32
  %cmp71 = icmp slt i32 %conv70, -5
  br i1 %cmp71, label %if.then76, label %lor.lhs.false72

lor.lhs.false72:                                  ; preds = %if.then68
  %endDay73 = getelementptr inbounds %"class.icu_75::SimpleTimeZone", ptr %this1, i32 0, i32 8
  %25 = load i8, ptr %endDay73, align 1
  %conv74 = sext i8 %25 to i32
  %cmp75 = icmp sgt i32 %conv74, 5
  br i1 %cmp75, label %if.then76, label %if.end77

if.then76:                                        ; preds = %lor.lhs.false72, %if.then68
  %26 = load ptr, ptr %status.addr, align 8
  store i32 1, ptr %26, align 4
  br label %if.end91

if.end77:                                         ; preds = %lor.lhs.false72
  br label %if.end90

if.else78:                                        ; preds = %if.end65
  %endDay79 = getelementptr inbounds %"class.icu_75::SimpleTimeZone", ptr %this1, i32 0, i32 8
  %27 = load i8, ptr %endDay79, align 1
  %conv80 = sext i8 %27 to i32
  %cmp81 = icmp slt i32 %conv80, 1
  br i1 %cmp81, label %if.then88, label %lor.lhs.false82

lor.lhs.false82:                                  ; preds = %if.else78
  %endDay83 = getelementptr inbounds %"class.icu_75::SimpleTimeZone", ptr %this1, i32 0, i32 8
  %28 = load i8, ptr %endDay83, align 1
  %conv84 = sext i8 %28 to i32
  %endMonth85 = getelementptr inbounds %"class.icu_75::SimpleTimeZone", ptr %this1, i32 0, i32 7
  %29 = load i8, ptr %endMonth85, align 8
  %idxprom = sext i8 %29 to i64
  %arrayidx = getelementptr inbounds [12 x i8], ptr @_ZN6icu_7514SimpleTimeZone17STATICMONTHLENGTHE, i64 0, i64 %idxprom
  %30 = load i8, ptr %arrayidx, align 1
  %conv86 = sext i8 %30 to i32
  %cmp87 = icmp sgt i32 %conv84, %conv86
  br i1 %cmp87, label %if.then88, label %if.end89

if.then88:                                        ; preds = %lor.lhs.false82, %if.else78
  %31 = load ptr, ptr %status.addr, align 8
  store i32 1, ptr %31, align 4
  br label %if.end91

if.end89:                                         ; preds = %lor.lhs.false82
  br label %if.end90

if.end90:                                         ; preds = %if.end89, %if.end77
  br label %if.end91

if.end91:                                         ; preds = %if.end90, %if.then88, %if.then76, %if.then63, %if.then31, %if.then20, %if.end10, %if.then
  ret void
}

; Function Attrs: mustprogress uwtable
define void @_ZN6icu_7514SimpleTimeZone10setEndRuleEiiiiNS0_8TimeModeER10UErrorCode(ptr noundef nonnull align 8 dereferenceable(160) %this, i32 noundef %month, i32 noundef %dayOfWeekInMonth, i32 noundef %dayOfWeek, i32 noundef %time, i32 noundef %mode, ptr noundef nonnull align 4 dereferenceable(4) %status) #1 align 2 {
entry:
  %this.addr = alloca ptr, align 8
  %month.addr = alloca i32, align 4
  %dayOfWeekInMonth.addr = alloca i32, align 4
  %dayOfWeek.addr = alloca i32, align 4
  %time.addr = alloca i32, align 4
  %mode.addr = alloca i32, align 4
  %status.addr = alloca ptr, align 8
  store ptr %this, ptr %this.addr, align 8
  store i32 %month, ptr %month.addr, align 4
  store i32 %dayOfWeekInMonth, ptr %dayOfWeekInMonth.addr, align 4
  store i32 %dayOfWeek, ptr %dayOfWeek.addr, align 4
  store i32 %time, ptr %time.addr, align 4
  store i32 %mode, ptr %mode.addr, align 4
  store ptr %status, ptr %status.addr, align 8
  %this1 = load ptr, ptr %this.addr, align 8
  %0 = load i32, ptr %month.addr, align 4
  %conv = trunc i32 %0 to i8
  %endMonth = getelementptr inbounds %"class.icu_75::SimpleTimeZone", ptr %this1, i32 0, i32 7
  store i8 %conv, ptr %endMonth, align 8
  %1 = load i32, ptr %dayOfWeekInMonth.addr, align 4
  %conv2 = trunc i32 %1 to i8
  %endDay = getelementptr inbounds %"class.icu_75::SimpleTimeZone", ptr %this1, i32 0, i32 8
  store i8 %conv2, ptr %endDay, align 1
  %2 = load i32, ptr %dayOfWeek.addr, align 4
  %conv3 = trunc i32 %2 to i8
  %endDayOfWeek = getelementptr inbounds %"class.icu_75::SimpleTimeZone", ptr %this1, i32 0, i32 9
  store i8 %conv3, ptr %endDayOfWeek, align 2
  %3 = load i32, ptr %time.addr, align 4
  %endTime = getelementptr inbounds %"class.icu_75::SimpleTimeZone", ptr %this1, i32 0, i32 10
  store i32 %3, ptr %endTime, align 4
  %4 = load i32, ptr %mode.addr, align 4
  %endTimeMode = getelementptr inbounds %"class.icu_75::SimpleTimeZone", ptr %this1, i32 0, i32 6
  store i32 %4, ptr %endTimeMode, align 4
  %5 = load ptr, ptr %status.addr, align 8
  call void @_ZN6icu_7514SimpleTimeZone13decodeEndRuleER10UErrorCode(ptr noundef nonnull align 8 dereferenceable(160) %this1, ptr noundef nonnull align 4 dereferenceable(4) %5)
  %transitionRulesInitialized = getelementptr inbounds %"class.icu_75::SimpleTimeZone", ptr %this1, i32 0, i32 17
  store i8 0, ptr %transitionRulesInitialized, align 8
  ret void
}