; Function Attrs: mustprogress nofree norecurse nosync nounwind willreturn memory(argmem: readwrite) uwtable
define void @_ZN6icu_7514SimpleTimeZone10setEndRuleEiiiiNS0_8TimeModeER10UErrorCode(ptr nocapture noundef nonnull align 8 dereferenceable(160) %this, i32 noundef %month, i32 noundef %dayOfWeekInMonth, i32 noundef %dayOfWeek, i32 noundef %time, i32 noundef %mode, ptr nocapture noundef nonnull align 4 dereferenceable(4) %status) local_unnamed_addr #5 align 2 {
entry:
  %conv = trunc i32 %month to i8
  %endMonth = getelementptr inbounds i8, ptr %this, i64 88
  store i8 %conv, ptr %endMonth, align 8
  %conv2 = trunc i32 %dayOfWeekInMonth to i8
  %endDay = getelementptr inbounds i8, ptr %this, i64 89
  store i8 %conv2, ptr %endDay, align 1
  %conv3 = trunc i32 %dayOfWeek to i8
  %endDayOfWeek = getelementptr inbounds i8, ptr %this, i64 90
  store i8 %conv3, ptr %endDayOfWeek, align 2
  %endTime = getelementptr inbounds i8, ptr %this, i64 92
  store i32 %time, ptr %endTime, align 4
  %endTimeMode = getelementptr inbounds i8, ptr %this, i64 84
  store i32 %mode, ptr %endTimeMode, align 4
  %0 = load i32, ptr %status, align 4
  %cmp.i.i = icmp slt i32 %0, 1
  br i1 %cmp.i.i, label %if.end.i, label %_ZN6icu_7514SimpleTimeZone13decodeEndRuleER10UErrorCode.exit

if.end.i:                                         ; preds = %entry
  %startDay.i = getelementptr inbounds i8, ptr %this, i64 73
  %1 = load i8, ptr %startDay.i, align 1
  %cmp.not.i = icmp ne i8 %1, 0
  %cmp3.i = icmp ne i8 %conv2, 0
  %2 = and i1 %cmp3.i, %cmp.not.i
  %conv4.i = zext i1 %2 to i8
  %useDaylight.i = getelementptr inbounds i8, ptr %this, i64 104
  store i8 %conv4.i, ptr %useDaylight.i, align 8
  br i1 %2, label %land.lhs.true.i, label %if.end10.i

land.lhs.true.i:                                  ; preds = %if.end.i
  %dstSavings.i = getelementptr inbounds i8, ptr %this, i64 116
  %3 = load i32, ptr %dstSavings.i, align 4
  %cmp7.i = icmp eq i32 %3, 0
  br i1 %cmp7.i, label %if.then8.i, label %if.then14.i

if.then8.i:                                       ; preds = %land.lhs.true.i
  store i32 3600000, ptr %dstSavings.i, align 4
  br label %if.then14.i

if.end10.i:                                       ; preds = %if.end.i
  %cmp13.not.i = icmp eq i8 %conv2, 0
  br i1 %cmp13.not.i, label %_ZN6icu_7514SimpleTimeZone13decodeEndRuleER10UErrorCode.exit, label %if.then14.i

if.then14.i:                                      ; preds = %if.end10.i, %if.then8.i, %land.lhs.true.i
  %or.cond.i = icmp ugt i8 %conv, 11
  br i1 %or.cond.i, label %if.end91.sink.split.i, label %if.end21.i

if.end21.i:                                       ; preds = %if.then14.i
  %or.cond7.i = icmp ugt i32 %time, 86400000
  %or.cond8.i = icmp ugt i32 %mode, 2
  %or.cond10.i = or i1 %or.cond7.i, %or.cond8.i
  br i1 %or.cond10.i, label %if.end91.sink.split.i, label %if.end32.i

if.end32.i:                                       ; preds = %if.end21.i
  %cmp34.i = icmp eq i8 %conv3, 0
  br i1 %cmp34.i, label %if.end65.thread.i, label %if.else.i

if.end65.thread.i:                                ; preds = %if.end32.i
  %endMode.i = getelementptr inbounds i8, ptr %this, i64 112
  store i32 1, ptr %endMode.i, align 8
  br label %if.else78.i

if.else.i:                                        ; preds = %if.end32.i
  %cmp38.i = icmp sgt i8 %conv3, 0
  br i1 %cmp38.i, label %if.end59.i.thread, label %if.else41.i

if.else41.i:                                      ; preds = %if.else.i
  %sub.i = sub i8 0, %conv3
  store i8 %sub.i, ptr %endDayOfWeek, align 2
  %cmp48.i = icmp sgt i8 %conv2, 0
  br i1 %cmp48.i, label %if.end59.i, label %if.else51.i

if.else51.i:                                      ; preds = %if.else41.i
  %sub54.i = sub i8 0, %conv2
  store i8 %sub54.i, ptr %endDay, align 1
  br label %if.end59.i

if.end59.i:                                       ; preds = %if.else51.i, %if.else41.i
  %.sink.i = phi i32 [ 4, %if.else51.i ], [ 3, %if.else41.i ]
  %4 = phi i8 [ %sub54.i, %if.else51.i ], [ %conv2, %if.else41.i ]
  %endMode57.i = getelementptr inbounds i8, ptr %this, i64 112
  store i32 %.sink.i, ptr %endMode57.i, align 8
  %cmp62.i = icmp sgt i8 %sub.i, 7
  br i1 %cmp62.i, label %if.end91.sink.split.i, label %if.else78.i

if.end59.i.thread:                                ; preds = %if.else.i
  %endMode57.i2 = getelementptr inbounds i8, ptr %this, i64 112
  store i32 2, ptr %endMode57.i2, align 8
  %cmp62.i3 = icmp ugt i8 %conv3, 7
  %5 = add i8 %conv2, -6
  %or.cond9.i = icmp ult i8 %5, -11
  %or.cond = or i1 %cmp62.i3, %or.cond9.i
  br i1 %or.cond, label %if.end91.sink.split.i, label %_ZN6icu_7514SimpleTimeZone13decodeEndRuleER10UErrorCode.exit

if.else78.i:                                      ; preds = %if.end59.i, %if.end65.thread.i
  %6 = phi i8 [ %conv2, %if.end65.thread.i ], [ %4, %if.end59.i ]
  %cmp81.i = icmp slt i8 %6, 1
  br i1 %cmp81.i, label %if.end91.sink.split.i, label %lor.lhs.false82.i

lor.lhs.false82.i:                                ; preds = %if.else78.i
  %conv.mask = and i32 %month, 15
  %idxprom.i = zext nneg i32 %conv.mask to i64
  %arrayidx.i = getelementptr inbounds [12 x i8], ptr @_ZN6icu_7514SimpleTimeZone17STATICMONTHLENGTHE, i64 0, i64 %idxprom.i
  %7 = load i8, ptr %arrayidx.i, align 1
  %cmp87.i = icmp sgt i8 %6, %7
  br i1 %cmp87.i, label %if.end91.sink.split.i, label %_ZN6icu_7514SimpleTimeZone13decodeEndRuleER10UErrorCode.exit

if.end91.sink.split.i:                            ; preds = %if.end59.i.thread, %lor.lhs.false82.i, %if.else78.i, %if.end59.i, %if.end21.i, %if.then14.i
  store i32 1, ptr %status, align 4
  br label %_ZN6icu_7514SimpleTimeZone13decodeEndRuleER10UErrorCode.exit

_ZN6icu_7514SimpleTimeZone13decodeEndRuleER10UErrorCode.exit: ; preds = %if.end59.i.thread, %entry, %if.end10.i, %lor.lhs.false82.i, %if.end91.sink.split.i
  %transitionRulesInitialized = getelementptr inbounds i8, ptr %this, i64 120
  store i8 0, ptr %transitionRulesInitialized, align 8
  ret void
}